target datalayout = "e-m:e-p270:32:32-p271:32:32-p272:64:64-i64:64-i128:128-f80:128-n8:16:32:64-S128"
target triple = "x86_64-pc-linux-gnu"

%"class.icu_77::UMutex" = type { [40 x i8], %"struct.std::atomic", ptr }
%"struct.std::atomic" = type { %"struct.std::__atomic_base" }
%"struct.std::__atomic_base" = type { ptr }
%struct.UConverterSharedData = type { i32, i32, ptr, ptr, i8, i8, ptr, i32, %struct.UConverterMBCSTable }
%struct.UConverterMBCSTable = type { i8, i8, i8, i32, ptr, ptr, ptr, ptr, ptr, ptr, [64 x i16], ptr, ptr, i32, i8, i8, i8, i16, i32, ptr, ptr, ptr, ptr }
%struct.UConverterLoadArgs = type { i32, i32, i8, i8, i16, i32, ptr, ptr, ptr }
%struct.UConverterStaticData = type { i32, [60 x i8], i32, i8, i8, i8, i8, [4 x i8], i8, i8, i8, i8, i8, [19 x i8] }
%struct.UConverterImpl = type { i32, ptr, ptr, ptr, ptr, ptr, ptr, ptr, ptr, ptr, ptr, ptr, ptr, ptr, ptr, ptr, ptr, ptr }
%struct.UConverter = type { ptr, ptr, ptr, ptr, ptr, ptr, ptr, i32, i8, i8, i8, i8, i8, [7 x i8], i32, i32, i32, i32, i8, i8, i8, i8, i8, i8, i8, i8, [8 x i8], [32 x i8], [2 x i16], [2 x i16], [32 x i16], i32, [19 x i16], [31 x i8], i8, i8, i8, i32 }

@_ZL13cnvCacheMutex = internal global %"class.icu_77::UMutex" zeroinitializer, align 8

; Function Attrs: mustprogress uwtable
define internal noundef signext i8 @_ZL30ucnv_deleteSharedConverterDataP20UConverterSharedData(ptr noundef %0) #0 {
  %2 = alloca i8, align 1
  %3 = alloca ptr, align 8
  %4 = alloca ptr, align 8
  store ptr %0, ptr %3, align 8, !tbaa !18
  %5 = load ptr, ptr %3, align 8, !tbaa !18
  %6 = getelementptr inbounds nuw %struct.UConverterSharedData, ptr %5, i32 0, i32 1
  %7 = load i32, ptr %6, align 4, !tbaa !21
  %8 = icmp ugt i32 %7, 0
  br i1 %8, label %9, label %10

9:                                                ; preds = %1
  store i8 0, ptr %2, align 1
  br label %36

10:                                               ; preds = %1
  %11 = load ptr, ptr %3, align 8, !tbaa !18
  %12 = getelementptr inbounds nuw %struct.UConverterSharedData, ptr %11, i32 0, i32 6
  %13 = load ptr, ptr %12, align 8, !tbaa !34
  %14 = getelementptr inbounds nuw %struct.UConverterImpl, ptr %13, i32 0, i32 2
  %15 = load ptr, ptr %14, align 8, !tbaa !35
  %16 = icmp ne ptr %15, null
  br i1 %16, label %17, label %24

17:                                               ; preds = %10
  %18 = load ptr, ptr %3, align 8, !tbaa !18
  %19 = getelementptr inbounds nuw %struct.UConverterSharedData, ptr %18, i32 0, i32 6
  %20 = load ptr, ptr %19, align 8, !tbaa !34
  %21 = getelementptr inbounds nuw %struct.UConverterImpl, ptr %20, i32 0, i32 2
  %22 = load ptr, ptr %21, align 8, !tbaa !35
  %23 = load ptr, ptr %3, align 8, !tbaa !18
  call void %22(ptr noundef %23)
  br label %24

24:                                               ; preds = %17, %10
  %25 = load ptr, ptr %3, align 8, !tbaa !18
  %26 = getelementptr inbounds nuw %struct.UConverterSharedData, ptr %25, i32 0, i32 2
  %27 = load ptr, ptr %26, align 8, !tbaa !38
  %28 = icmp ne ptr %27, null
  br i1 %28, label %29, label %34

29:                                               ; preds = %24
  call void @llvm.lifetime.start.p0(i64 8, ptr %4) #12
  %30 = load ptr, ptr %3, align 8, !tbaa !18
  %31 = getelementptr inbounds nuw %struct.UConverterSharedData, ptr %30, i32 0, i32 2
  %32 = load ptr, ptr %31, align 8, !tbaa !38
  store ptr %32, ptr %4, align 8, !tbaa !29
  %33 = load ptr, ptr %4, align 8, !tbaa !29
  call void @udata_close_77(ptr noundef %33)
  call void @llvm.lifetime.end.p0(i64 8, ptr %4) #12
  br label %34

34:                                               ; preds = %29, %24
  %35 = load ptr, ptr %3, align 8, !tbaa !18
  call void @uprv_free_77(ptr noundef %35)
  store i8 1, ptr %2, align 1
  br label %36

36:                                               ; preds = %34, %9
  %37 = load i8, ptr %2, align 1
  ret i8 %37
}

; Function Attrs: mustprogress uwtable
define void @ucnv_unload_77(ptr noundef %0) #0 {
  %2 = alloca ptr, align 8
  store ptr %0, ptr %2, align 8, !tbaa !18
  %3 = load ptr, ptr %2, align 8, !tbaa !18
  %4 = icmp ne ptr %3, null
  br i1 %4, label %5, label %30

5:                                                ; preds = %1
  %6 = load ptr, ptr %2, align 8, !tbaa !18
  %7 = getelementptr inbounds nuw %struct.UConverterSharedData, ptr %6, i32 0, i32 1
  %8 = load i32, ptr %7, align 4, !tbaa !21
  %9 = icmp ugt i32 %8, 0
  br i1 %9, label %10, label %15

10:                                               ; preds = %5
  %11 = load ptr, ptr %2, align 8, !tbaa !18
  %12 = getelementptr inbounds nuw %struct.UConverterSharedData, ptr %11, i32 0, i32 1
  %13 = load i32, ptr %12, align 4, !tbaa !21
  %14 = add i32 %13, -1
  store i32 %14, ptr %12, align 4, !tbaa !21
  br label %15

15:                                               ; preds = %10, %5
  %16 = load ptr, ptr %2, align 8, !tbaa !18
  %17 = getelementptr inbounds nuw %struct.UConverterSharedData, ptr %16, i32 0, i32 1
  %18 = load i32, ptr %17, align 4, !tbaa !21
  %19 = icmp ule i32 %18, 0
  br i1 %19, label %20, label %29

20:                                               ; preds = %15
  %21 = load ptr, ptr %2, align 8, !tbaa !18
  %22 = getelementptr inbounds nuw %struct.UConverterSharedData, ptr %21, i32 0, i32 4
  %23 = load i8, ptr %22, align 8, !tbaa !32
  %24 = sext i8 %23 to i32
  %25 = icmp eq i32 %24, 0
  br i1 %25, label %26, label %29

26:                                               ; preds = %20
  %27 = load ptr, ptr %2, align 8, !tbaa !18
  %28 = call noundef signext i8 @_ZL30ucnv_deleteSharedConverterDataP20UConverterSharedData(ptr noundef %27)
  br label %29

29:                                               ; preds = %26, %20, %15
  br label %30

30:                                               ; preds = %29, %1
  ret void
}

; Function Attrs: mustprogress uwtable
define void @ucnv_unloadSharedDataIfReady_77(ptr noundef %0) #0 {
  %2 = alloca ptr, align 8
  store ptr %0, ptr %2, align 8, !tbaa !18
  %3 = load ptr, ptr %2, align 8, !tbaa !18
  %4 = icmp ne ptr %3, null
  br i1 %4, label %5, label %12

5:                                                ; preds = %1
  %6 = load ptr, ptr %2, align 8, !tbaa !18
  %7 = getelementptr inbounds nuw %struct.UConverterSharedData, ptr %6, i32 0, i32 5
  %8 = load i8, ptr %7, align 1, !tbaa !39
  %9 = icmp ne i8 %8, 0
  br i1 %9, label %10, label %12

10:                                               ; preds = %5
  call void @umtx_lock_77(ptr noundef @_ZL13cnvCacheMutex)
  %11 = load ptr, ptr %2, align 8, !tbaa !18
  call void @ucnv_unload_77(ptr noundef %11)
  call void @umtx_unlock_77(ptr noundef @_ZL13cnvCacheMutex)
  br label %12

12:                                               ; preds = %10, %5, %1
  ret void
}

; Function Attrs: inlinehint mustprogress nounwind uwtable
define internal noundef signext i8 @_ZL9U_FAILURE10UErrorCode(i32 noundef %0) #3 {
  %2 = alloca i32, align 4
  store i32 %0, ptr %2, align 4, !tbaa !9
  %3 = load i32, ptr %2, align 4, !tbaa !9
  %4 = icmp sgt i32 %3, 0
  %5 = zext i1 %4 to i8
  ret i8 %5
}

; Function Attrs: mustprogress uwtable
define ptr @ucnv_createConverterFromSharedData_77(ptr noundef %0, ptr noundef %1, ptr noundef %2, ptr noundef %3) #0 {
  %5 = alloca ptr, align 8
  %6 = alloca ptr, align 8
  %7 = alloca ptr, align 8
  %8 = alloca ptr, align 8
  %9 = alloca ptr, align 8
  %10 = alloca i8, align 1
  %11 = alloca i32, align 4
  store ptr %0, ptr %6, align 8, !tbaa !56
  store ptr %1, ptr %7, align 8, !tbaa !18
  store ptr %2, ptr %8, align 8, !tbaa !8
  store ptr %3, ptr %9, align 8, !tbaa !8
  call void @llvm.lifetime.start.p0(i64 1, ptr %10) #12
  %12 = load ptr, ptr %9, align 8, !tbaa !8
  %13 = load i32, ptr %12, align 4, !tbaa !9
  %14 = call noundef signext i8 @_ZL9U_FAILURE10UErrorCode(i32 noundef %13)
  %15 = icmp ne i8 %14, 0
  br i1 %15, label %16, label %19

16:                                               ; preds = %4
  %17 = load ptr, ptr %7, align 8, !tbaa !18
  call void @ucnv_unloadSharedDataIfReady_77(ptr noundef %17)
  %18 = load ptr, ptr %6, align 8, !tbaa !56
  store ptr %18, ptr %5, align 8
  store i32 1, ptr %11, align 4
  br label %133

19:                                               ; preds = %4
  %20 = load ptr, ptr %6, align 8, !tbaa !56
  %21 = icmp eq ptr %20, null
  br i1 %21, label %22, label %30

22:                                               ; preds = %19
  %23 = call noalias ptr @uprv_malloc_77(i64 noundef 288) #14
  store ptr %23, ptr %6, align 8, !tbaa !56
  %24 = load ptr, ptr %6, align 8, !tbaa !56
  %25 = icmp eq ptr %24, null
  br i1 %25, label %26, label %29

26:                                               ; preds = %22
  %27 = load ptr, ptr %9, align 8, !tbaa !8
  store i32 7, ptr %27, align 4, !tbaa !9
  %28 = load ptr, ptr %7, align 8, !tbaa !18
  call void @ucnv_unloadSharedDataIfReady_77(ptr noundef %28)
  store ptr null, ptr %5, align 8
  store i32 1, ptr %11, align 4
  br label %133

29:                                               ; preds = %22
  store i8 0, ptr %10, align 1, !tbaa !16
  br label %31

30:                                               ; preds = %19
  store i8 1, ptr %10, align 1, !tbaa !16
  br label %31

31:                                               ; preds = %30, %29
  %32 = load ptr, ptr %6, align 8, !tbaa !56
  call void @llvm.memset.p0.i64(ptr align 8 %32, i8 0, i64 288, i1 false)
  %33 = load i8, ptr %10, align 1, !tbaa !16
  %34 = load ptr, ptr %6, align 8, !tbaa !56
  %35 = getelementptr inbounds nuw %struct.UConverter, ptr %34, i32 0, i32 9
  store i8 %33, ptr %35, align 1, !tbaa !58
  %36 = load ptr, ptr %7, align 8, !tbaa !18
  %37 = load ptr, ptr %6, align 8, !tbaa !56
  %38 = getelementptr inbounds nuw %struct.UConverter, ptr %37, i32 0, i32 6
  store ptr %36, ptr %38, align 8, !tbaa !61
  %39 = load ptr, ptr %8, align 8, !tbaa !8
  %40 = getelementptr inbounds nuw %struct.UConverterLoadArgs, ptr %39, i32 0, i32 5
  %41 = load i32, ptr %40, align 4, !tbaa !44
  %42 = load ptr, ptr %6, align 8, !tbaa !56
  %43 = getelementptr inbounds nuw %struct.UConverter, ptr %42, i32 0, i32 7
  store i32 %41, ptr %43, align 8, !tbaa !62
  %44 = load ptr, ptr %8, align 8, !tbaa !8
  %45 = getelementptr inbounds nuw %struct.UConverterLoadArgs, ptr %44, i32 0, i32 2
  %46 = load i8, ptr %45, align 8, !tbaa !20
  %47 = icmp ne i8 %46, 0
  br i1 %47, label %103, label %48

48:                                               ; preds = %31
  %49 = load ptr, ptr %6, align 8, !tbaa !56
  %50 = getelementptr inbounds nuw %struct.UConverter, ptr %49, i32 0, i32 31
  store i32 -1, ptr %50, align 8, !tbaa !63
  %51 = load ptr, ptr %6, align 8, !tbaa !56
  %52 = getelementptr inbounds nuw %struct.UConverter, ptr %51, i32 0, i32 1
  store ptr @UCNV_TO_U_CALLBACK_SUBSTITUTE_77, ptr %52, align 8, !tbaa !64
  %53 = load ptr, ptr %6, align 8, !tbaa !56
  %54 = getelementptr inbounds nuw %struct.UConverter, ptr %53, i32 0, i32 0
  store ptr @UCNV_FROM_U_CALLBACK_SUBSTITUTE_77, ptr %54, align 8, !tbaa !65
  %55 = load ptr, ptr %7, align 8, !tbaa !18
  %56 = getelementptr inbounds nuw %struct.UConverterSharedData, ptr %55, i32 0, i32 7
  %57 = load i32, ptr %56, align 8, !tbaa !66
  %58 = load ptr, ptr %6, align 8, !tbaa !56
  %59 = getelementptr inbounds nuw %struct.UConverter, ptr %58, i32 0, i32 14
  store i32 %57, ptr %59, align 8, !tbaa !67
  %60 = load ptr, ptr %7, align 8, !tbaa !18
  %61 = getelementptr inbounds nuw %struct.UConverterSharedData, ptr %60, i32 0, i32 3
  %62 = load ptr, ptr %61, align 8, !tbaa !33
  %63 = getelementptr inbounds nuw %struct.UConverterStaticData, ptr %62, i32 0, i32 6
  %64 = load i8, ptr %63, align 1, !tbaa !68
  %65 = load ptr, ptr %6, align 8, !tbaa !56
  %66 = getelementptr inbounds nuw %struct.UConverter, ptr %65, i32 0, i32 18
  store i8 %64, ptr %66, align 8, !tbaa !70
  %67 = load ptr, ptr %7, align 8, !tbaa !18
  %68 = getelementptr inbounds nuw %struct.UConverterSharedData, ptr %67, i32 0, i32 3
  %69 = load ptr, ptr %68, align 8, !tbaa !33
  %70 = getelementptr inbounds nuw %struct.UConverterStaticData, ptr %69, i32 0, i32 12
  %71 = load i8, ptr %70, align 4, !tbaa !71
  %72 = load ptr, ptr %6, align 8, !tbaa !56
  %73 = getelementptr inbounds nuw %struct.UConverter, ptr %72, i32 0, i32 24
  store i8 %71, ptr %73, align 2, !tbaa !72
  %74 = load ptr, ptr %7, align 8, !tbaa !18
  %75 = getelementptr inbounds nuw %struct.UConverterSharedData, ptr %74, i32 0, i32 3
  %76 = load ptr, ptr %75, align 8, !tbaa !33
  %77 = getelementptr inbounds nuw %struct.UConverterStaticData, ptr %76, i32 0, i32 8
  %78 = load i8, ptr %77, align 4, !tbaa !73
  %79 = load ptr, ptr %6, align 8, !tbaa !56
  %80 = getelementptr inbounds nuw %struct.UConverter, ptr %79, i32 0, i32 19
  store i8 %78, ptr %80, align 1, !tbaa !74
  %81 = load ptr, ptr %6, align 8, !tbaa !56
  %82 = getelementptr inbounds nuw %struct.UConverter, ptr %81, i32 0, i32 28
  %83 = getelementptr inbounds [2 x i16], ptr %82, i64 0, i64 0
  %84 = load ptr, ptr %6, align 8, !tbaa !56
  %85 = getelementptr inbounds nuw %struct.UConverter, ptr %84, i32 0, i32 5
  store ptr %83, ptr %85, align 8, !tbaa !75
  br label %86

86:                                               ; preds = %48
  %87 = load ptr, ptr %6, align 8, !tbaa !56
  %88 = getelementptr inbounds nuw %struct.UConverter, ptr %87, i32 0, i32 5
  %89 = load ptr, ptr %88, align 8, !tbaa !75
  %90 = load ptr, ptr %7, align 8, !tbaa !18
  %91 = getelementptr inbounds nuw %struct.UConverterSharedData, ptr %90, i32 0, i32 3
  %92 = load ptr, ptr %91, align 8, !tbaa !33
  %93 = getelementptr inbounds nuw %struct.UConverterStaticData, ptr %92, i32 0, i32 7
  %94 = getelementptr inbounds [4 x i8], ptr %93, i64 0, i64 0
  %95 = load ptr, ptr %6, align 8, !tbaa !56
  %96 = getelementptr inbounds nuw %struct.UConverter, ptr %95, i32 0, i32 19
  %97 = load i8, ptr %96, align 1, !tbaa !74
  %98 = sext i8 %97 to i64
  call void @llvm.memcpy.p0.p0.i64(ptr align 1 %89, ptr align 4 %94, i64 %98, i1 false)
  br label %99

99:                                               ; preds = %86
  br label %100

100:                                              ; preds = %99
  %101 = load ptr, ptr %6, align 8, !tbaa !56
  %102 = getelementptr inbounds nuw %struct.UConverter, ptr %101, i32 0, i32 37
  store i32 1, ptr %102, align 4, !tbaa !76
  br label %103

103:                                              ; preds = %100, %31
  %104 = load ptr, ptr %7, align 8, !tbaa !18
  %105 = getelementptr inbounds nuw %struct.UConverterSharedData, ptr %104, i32 0, i32 6
  %106 = load ptr, ptr %105, align 8, !tbaa !34
  %107 = getelementptr inbounds nuw %struct.UConverterImpl, ptr %106, i32 0, i32 3
  %108 = load ptr, ptr %107, align 8, !tbaa !77
  %109 = icmp ne ptr %108, null
  br i1 %109, label %110, label %131

110:                                              ; preds = %103
  %111 = load ptr, ptr %7, align 8, !tbaa !18
  %112 = getelementptr inbounds nuw %struct.UConverterSharedData, ptr %111, i32 0, i32 6
  %113 = load ptr, ptr %112, align 8, !tbaa !34
  %114 = getelementptr inbounds nuw %struct.UConverterImpl, ptr %113, i32 0, i32 3
  %115 = load ptr, ptr %114, align 8, !tbaa !77
  %116 = load ptr, ptr %6, align 8, !tbaa !56
  %117 = load ptr, ptr %8, align 8, !tbaa !8
  %118 = load ptr, ptr %9, align 8, !tbaa !8
  call void %115(ptr noundef %116, ptr noundef %117, ptr noundef %118)
  %119 = load ptr, ptr %9, align 8, !tbaa !8
  %120 = load i32, ptr %119, align 4, !tbaa !9
  %121 = call noundef signext i8 @_ZL9U_FAILURE10UErrorCode(i32 noundef %120)
  %122 = icmp ne i8 %121, 0
  br i1 %122, label %123, label %130

123:                                              ; preds = %110
  %124 = load ptr, ptr %8, align 8, !tbaa !8
  %125 = getelementptr inbounds nuw %struct.UConverterLoadArgs, ptr %124, i32 0, i32 2
  %126 = load i8, ptr %125, align 8, !tbaa !20
  %127 = icmp ne i8 %126, 0
  br i1 %127, label %130, label %128

128:                                              ; preds = %123
  %129 = load ptr, ptr %6, align 8, !tbaa !56
  call void @ucnv_close_77(ptr noundef %129)
  store ptr null, ptr %5, align 8
  store i32 1, ptr %11, align 4
  br label %133

130:                                              ; preds = %123, %110
  br label %131

131:                                              ; preds = %130, %103
  %132 = load ptr, ptr %6, align 8, !tbaa !56
  store ptr %132, ptr %5, align 8
  store i32 1, ptr %11, align 4
  br label %133

133:                                              ; preds = %131, %128, %26, %16
  call void @llvm.lifetime.end.p0(i64 1, ptr %10) #12
  %134 = load ptr, ptr %5, align 8
  ret ptr %134
}