; Function Attrs: mustprogress uwtable
define noundef ptr @ucnv_createConverterFromSharedData_77(ptr noundef %0, ptr noundef %1, ptr noundef %2, ptr noundef %3) local_unnamed_addr #0 {
  %5 = load i32, ptr %3, align 4, !tbaa !13
  %6 = icmp slt i32 %5, 1
  br i1 %6, label %30, label %7

7:                                                ; preds = %4
  %.not.i = icmp eq ptr %1, null
  br i1 %.not.i, label %ucnv_unloadSharedDataIfReady_77.exit, label %8

8:                                                ; preds = %7
  %9 = getelementptr inbounds nuw i8, ptr %1, i64 25
  %10 = load i8, ptr %9, align 1, !tbaa !34
  %.not3.i = icmp eq i8 %10, 0
  br i1 %.not3.i, label %ucnv_unloadSharedDataIfReady_77.exit, label %11

11:                                               ; preds = %8
  tail call void @umtx_lock_77(ptr noundef nonnull @_ZL13cnvCacheMutex)
  %12 = getelementptr inbounds nuw i8, ptr %1, i64 4
  %13 = load i32, ptr %12, align 4, !tbaa !22
  %.not7.i.i = icmp eq i32 %13, 0
  br i1 %.not7.i.i, label %.thread.i.i, label %14

14:                                               ; preds = %11
  %15 = add i32 %13, -1
  store i32 %15, ptr %12, align 4, !tbaa !22
  %16 = icmp eq i32 %15, 0
  br i1 %16, label %.thread.i.i, label %ucnv_unload_77.exit.i

.thread.i.i:                                      ; preds = %14, %11
  %17 = getelementptr inbounds nuw i8, ptr %1, i64 24
  %18 = load i8, ptr %17, align 8, !tbaa !37
  %19 = icmp eq i8 %18, 0
  br i1 %19, label %20, label %ucnv_unload_77.exit.i

20:                                               ; preds = %.thread.i.i
  %21 = getelementptr inbounds nuw i8, ptr %1, i64 32
  %22 = load ptr, ptr %21, align 8, !tbaa !39
  %23 = getelementptr inbounds nuw i8, ptr %22, i64 16
  %24 = load ptr, ptr %23, align 8, !tbaa !43
  %.not10.i.i.i = icmp eq ptr %24, null
  br i1 %.not10.i.i.i, label %26, label %25

25:                                               ; preds = %20
  tail call void %24(ptr noundef nonnull %1)
  br label %26

26:                                               ; preds = %25, %20
  %27 = getelementptr inbounds nuw i8, ptr %1, i64 8
  %28 = load ptr, ptr %27, align 8, !tbaa !38
  %.not11.i.i.i = icmp eq ptr %28, null
  br i1 %.not11.i.i.i, label %_ZL30ucnv_deleteSharedConverterDataP20UConverterSharedData.exit.i.i, label %29

29:                                               ; preds = %26
  tail call void @udata_close_77(ptr noundef nonnull %28)
  br label %_ZL30ucnv_deleteSharedConverterDataP20UConverterSharedData.exit.i.i

_ZL30ucnv_deleteSharedConverterDataP20UConverterSharedData.exit.i.i: ; preds = %29, %26
  tail call void @uprv_free_77(ptr noundef nonnull %1)
  br label %ucnv_unload_77.exit.i

ucnv_unload_77.exit.i:                            ; preds = %_ZL30ucnv_deleteSharedConverterDataP20UConverterSharedData.exit.i.i, %.thread.i.i, %14
  tail call void @umtx_unlock_77(ptr noundef nonnull @_ZL13cnvCacheMutex)
  br label %ucnv_unloadSharedDataIfReady_77.exit

30:                                               ; preds = %4
  %31 = icmp eq ptr %0, null
  br i1 %31, label %32, label %58

32:                                               ; preds = %30
  %33 = tail call noalias dereferenceable_or_null(288) ptr @uprv_malloc_77(i64 noundef 288) #10
  %34 = icmp eq ptr %33, null
  br i1 %34, label %35, label %58

35:                                               ; preds = %32
  store i32 7, ptr %3, align 4, !tbaa !13
  %.not.i50 = icmp eq ptr %1, null
  br i1 %.not.i50, label %ucnv_unloadSharedDataIfReady_77.exit, label %36

36:                                               ; preds = %35
  %37 = getelementptr inbounds nuw i8, ptr %1, i64 25
  %38 = load i8, ptr %37, align 1, !tbaa !34
  %.not3.i51 = icmp eq i8 %38, 0
  br i1 %.not3.i51, label %ucnv_unloadSharedDataIfReady_77.exit, label %39

39:                                               ; preds = %36
  tail call void @umtx_lock_77(ptr noundef nonnull @_ZL13cnvCacheMutex)
  %40 = getelementptr inbounds nuw i8, ptr %1, i64 4
  %41 = load i32, ptr %40, align 4, !tbaa !22
  %.not7.i.i52 = icmp eq i32 %41, 0
  br i1 %.not7.i.i52, label %.thread.i.i54, label %42

42:                                               ; preds = %39
  %43 = add i32 %41, -1
  store i32 %43, ptr %40, align 4, !tbaa !22
  %44 = icmp eq i32 %43, 0
  br i1 %44, label %.thread.i.i54, label %ucnv_unload_77.exit.i53

.thread.i.i54:                                    ; preds = %42, %39
  %45 = getelementptr inbounds nuw i8, ptr %1, i64 24
  %46 = load i8, ptr %45, align 8, !tbaa !37
  %47 = icmp eq i8 %46, 0
  br i1 %47, label %48, label %ucnv_unload_77.exit.i53

48:                                               ; preds = %.thread.i.i54
  %49 = getelementptr inbounds nuw i8, ptr %1, i64 32
  %50 = load ptr, ptr %49, align 8, !tbaa !39
  %51 = getelementptr inbounds nuw i8, ptr %50, i64 16
  %52 = load ptr, ptr %51, align 8, !tbaa !43
  %.not10.i.i.i55 = icmp eq ptr %52, null
  br i1 %.not10.i.i.i55, label %54, label %53

53:                                               ; preds = %48
  tail call void %52(ptr noundef nonnull %1)
  br label %54

54:                                               ; preds = %53, %48
  %55 = getelementptr inbounds nuw i8, ptr %1, i64 8
  %56 = load ptr, ptr %55, align 8, !tbaa !38
  %.not11.i.i.i56 = icmp eq ptr %56, null
  br i1 %.not11.i.i.i56, label %_ZL30ucnv_deleteSharedConverterDataP20UConverterSharedData.exit.i.i57, label %57

57:                                               ; preds = %54
  tail call void @udata_close_77(ptr noundef nonnull %56)
  br label %_ZL30ucnv_deleteSharedConverterDataP20UConverterSharedData.exit.i.i57

_ZL30ucnv_deleteSharedConverterDataP20UConverterSharedData.exit.i.i57: ; preds = %57, %54
  tail call void @uprv_free_77(ptr noundef nonnull %1)
  br label %ucnv_unload_77.exit.i53

ucnv_unload_77.exit.i53:                          ; preds = %_ZL30ucnv_deleteSharedConverterDataP20UConverterSharedData.exit.i.i57, %.thread.i.i54, %42
  tail call void @umtx_unlock_77(ptr noundef nonnull @_ZL13cnvCacheMutex)
  br label %ucnv_unloadSharedDataIfReady_77.exit

58:                                               ; preds = %30, %32
  %.042 = phi ptr [ %33, %32 ], [ %0, %30 ]
  %.0 = phi i8 [ 0, %32 ], [ 1, %30 ]
  tail call void @llvm.memset.p0.i64(ptr noundef nonnull align 8 dereferenceable(288) %.042, i8 0, i64 288, i1 false)
  %59 = getelementptr inbounds nuw i8, ptr %.042, i64 61
  store i8 %.0, ptr %59, align 1, !tbaa !58
  %60 = getelementptr inbounds nuw i8, ptr %.042, i64 48
  store ptr %1, ptr %60, align 8, !tbaa !61
  %61 = getelementptr inbounds nuw i8, ptr %2, i64 12
  %62 = load i32, ptr %61, align 4, !tbaa !48
  %63 = getelementptr inbounds nuw i8, ptr %.042, i64 56
  store i32 %62, ptr %63, align 8, !tbaa !62
  %64 = getelementptr inbounds nuw i8, ptr %2, i64 8
  %65 = load i8, ptr %64, align 8, !tbaa !21
  %.not46 = icmp eq i8 %65, 0
  br i1 %.not46, label %66, label %88

66:                                               ; preds = %58
  %67 = getelementptr inbounds nuw i8, ptr %.042, i64 208
  store i32 -1, ptr %67, align 8, !tbaa !63
  %68 = getelementptr inbounds nuw i8, ptr %.042, i64 8
  store ptr @UCNV_TO_U_CALLBACK_SUBSTITUTE_77, ptr %68, align 8, !tbaa !64
  store ptr @UCNV_FROM_U_CALLBACK_SUBSTITUTE_77, ptr %.042, align 8, !tbaa !65
  %69 = getelementptr inbounds nuw i8, ptr %1, i64 40
  %70 = load i32, ptr %69, align 8, !tbaa !66
  %71 = getelementptr inbounds nuw i8, ptr %.042, i64 72
  store i32 %70, ptr %71, align 8, !tbaa !67
  %72 = getelementptr inbounds nuw i8, ptr %1, i64 16
  %73 = load ptr, ptr %72, align 8, !tbaa !36
  %74 = getelementptr inbounds nuw i8, ptr %73, i64 71
  %75 = load i8, ptr %74, align 1, !tbaa !68
  %76 = getelementptr inbounds nuw i8, ptr %.042, i64 88
  store i8 %75, ptr %76, align 8, !tbaa !69
  %77 = getelementptr inbounds nuw i8, ptr %73, i64 80
  %78 = load i8, ptr %77, align 4, !tbaa !70
  %79 = getelementptr inbounds nuw i8, ptr %.042, i64 94
  store i8 %78, ptr %79, align 2, !tbaa !71
  %80 = getelementptr inbounds nuw i8, ptr %73, i64 76
  %81 = load i8, ptr %80, align 4, !tbaa !72
  %82 = getelementptr inbounds nuw i8, ptr %.042, i64 89
  store i8 %81, ptr %82, align 1, !tbaa !73
  %83 = getelementptr inbounds nuw i8, ptr %.042, i64 136
  %84 = getelementptr inbounds nuw i8, ptr %.042, i64 40
  store ptr %83, ptr %84, align 8, !tbaa !74
  %85 = getelementptr inbounds nuw i8, ptr %73, i64 72
  %86 = sext i8 %81 to i64
  tail call void @llvm.memcpy.p0.p0.i64(ptr nonnull align 1 %83, ptr nonnull align 4 %85, i64 %86, i1 false)
  %87 = getelementptr inbounds nuw i8, ptr %.042, i64 284
  store i32 1, ptr %87, align 4, !tbaa !75
  br label %88

88:                                               ; preds = %66, %58
  %89 = getelementptr inbounds nuw i8, ptr %1, i64 32
  %90 = load ptr, ptr %89, align 8, !tbaa !39
  %91 = getelementptr inbounds nuw i8, ptr %90, i64 24
  %92 = load ptr, ptr %91, align 8, !tbaa !76
  %.not47 = icmp eq ptr %92, null
  br i1 %.not47, label %ucnv_unloadSharedDataIfReady_77.exit, label %93

93:                                               ; preds = %88
  tail call void %92(ptr noundef nonnull %.042, ptr noundef nonnull %2, ptr noundef nonnull %3)
  %94 = load i32, ptr %3, align 4, !tbaa !13
  %95 = icmp slt i32 %94, 1
  br i1 %95, label %ucnv_unloadSharedDataIfReady_77.exit, label %96

96:                                               ; preds = %93
  %97 = load i8, ptr %64, align 8, !tbaa !21
  %.not49 = icmp eq i8 %97, 0
  br i1 %.not49, label %98, label %ucnv_unloadSharedDataIfReady_77.exit

98:                                               ; preds = %96
  tail call void @ucnv_close_77(ptr noundef nonnull %.042)
  br label %ucnv_unloadSharedDataIfReady_77.exit

ucnv_unloadSharedDataIfReady_77.exit:             ; preds = %ucnv_unload_77.exit.i53, %36, %35, %ucnv_unload_77.exit.i, %8, %7, %88, %96, %93, %98
  %.041 = phi ptr [ null, %98 ], [ %.042, %93 ], [ %.042, %96 ], [ %.042, %88 ], [ %0, %7 ], [ %0, %8 ], [ %0, %ucnv_unload_77.exit.i ], [ null, %35 ], [ null, %36 ], [ null, %ucnv_unload_77.exit.i53 ]
  ret ptr %.041
}